; ModuleID = 'source-C-CXX/55/1937.c'
source_filename = "source-C-CXX/55/1937.c"
target datalayout = "e-m:e-p270:32:32-p271:32:32-p272:64:64-i64:64-f80:128-n8:16:32:64-S128"
target triple = "x86_64-pc-linux-gnu"

@.str = private unnamed_addr constant [4 x i8] c"%ld\00", align 1
@.str.1 = private unnamed_addr constant [3 x i8] c"%d\00", align 1
@.str.2 = private unnamed_addr constant [7 x i8] c"%1d%1d\00", align 1
@.str.3 = private unnamed_addr constant [10 x i8] c"%1d%1d%1d\00", align 1
@.str.4 = private unnamed_addr constant [13 x i8] c"%1d%1d%1d%1d\00", align 1
@.str.5 = private unnamed_addr constant [16 x i8] c"%1d%1d%1d%1d%1d\00", align 1

; Function Attrs: nofree nounwind sspstrong uwtable
define dso_local i32 @main() local_unnamed_addr #0 {
  %1 = alloca i64, align 8
  %2 = bitcast i64* %1 to i8*
  call void @llvm.lifetime.start.p0i8(i64 8, i8* nonnull %2) #3
  %3 = call i32 (i8*, ...) @__isoc99_scanf(i8* getelementptr inbounds ([4 x i8], [4 x i8]* @.str, i64 0, i64 0), i64* nonnull %1)
  %4 = load i64, i64* %1, align 8, !tbaa !5
  %5 = srem i64 %4, 10
  %6 = trunc i64 %5 to i32
  %7 = sub nsw i64 %4, %5
  %8 = srem i64 %7, 100
  %9 = trunc i64 %8 to i8
  %10 = sdiv i8 %9, 10
  %11 = sext i8 %10 to i64
  %12 = sext i8 %10 to i32
  %13 = mul nsw i64 %11, -10
  %14 = add i64 %13, %7
  %15 = srem i64 %14, 1000
  %16 = trunc i64 %15 to i16
  %17 = sdiv i16 %16, 100
  %18 = sext i16 %17 to i64
  %19 = sext i16 %17 to i32
  %20 = mul nsw i64 %18, -100
  %21 = add i64 %20, %14
  %22 = srem i64 %21, 10000
  %23 = trunc i64 %22 to i16
  %24 = sdiv i16 %23, 1000
  %25 = sext i16 %24 to i64
  %26 = sext i16 %24 to i32
  %27 = mul nsw i64 %25, -1000
  %28 = add i64 %27, %21
  %29 = sdiv i64 %28, 10000
  %30 = trunc i64 %29 to i32
  %31 = icmp slt i64 %4, 10
  br i1 %31, label %32, label %34

32:                                               ; preds = %0
  %33 = call i32 (i8*, ...) @printf(i8* nonnull dereferenceable(1) getelementptr inbounds ([3 x i8], [3 x i8]* @.str.1, i64 0, i64 0), i32 %6)
  br label %48

34:                                               ; preds = %0
  %35 = icmp slt i64 %4, 100
  br i1 %35, label %36, label %38

36:                                               ; preds = %34
  %37 = call i32 (i8*, ...) @printf(i8* nonnull dereferenceable(1) getelementptr inbounds ([7 x i8], [7 x i8]* @.str.2, i64 0, i64 0), i32 %6, i32 %12)
  br label %48

38:                                               ; preds = %34
  %39 = icmp slt i64 %4, 1000
  br i1 %39, label %40, label %42

40:                                               ; preds = %38
  %41 = call i32 (i8*, ...) @printf(i8* nonnull dereferenceable(1) getelementptr inbounds ([10 x i8], [10 x i8]* @.str.3, i64 0, i64 0), i32 %6, i32 %12, i32 %19)
  br label %48

42:                                               ; preds = %38
  %43 = icmp slt i64 %4, 10000
  br i1 %43, label %44, label %46

44:                                               ; preds = %42
  %45 = call i32 (i8*, ...) @printf(i8* nonnull dereferenceable(1) getelementptr inbounds ([13 x i8], [13 x i8]* @.str.4, i64 0, i64 0), i32 %6, i32 %12, i32 %19, i32 %26)
  br label %48

46:                                               ; preds = %42
  %47 = call i32 (i8*, ...) @printf(i8* nonnull dereferenceable(1) getelementptr inbounds ([16 x i8], [16 x i8]* @.str.5, i64 0, i64 0), i32 %6, i32 %12, i32 %19, i32 %26, i32 %30)
  br label %48

48:                                               ; preds = %36, %44, %46, %40, %32
  call void @llvm.lifetime.end.p0i8(i64 8, i8* nonnull %2) #3
  ret i32 0
}

; Function Attrs: argmemonly mustprogress nofree nosync nounwind willreturn
declare void @llvm.lifetime.start.p0i8(i64 immarg, i8* nocapture) #1

; Function Attrs: nofree nounwind
declare noundef i32 @__isoc99_scanf(i8* nocapture noundef readonly, ...) local_unnamed_addr #2

; Function Attrs: nofree nounwind
declare noundef i32 @printf(i8* nocapture noundef readonly, ...) local_unnamed_addr #2

; Function Attrs: argmemonly mustprogress nofree nosync nounwind willreturn
declare void @llvm.lifetime.end.p0i8(i64 immarg, i8* nocapture) #1


!llvm.module.flags = !{!0, !1, !2, !3}
!llvm.ident = !{!4}

!0 = !{i32 1, !"wchar_size", i32 4}
!1 = !{i32 7, !"PIC Level", i32 2}
!2 = !{i32 7, !"PIE Level", i32 2}
!3 = !{i32 7, !"uwtable", i32 1}
!4 = !{!"clang version 13.0.0"}
!5 = !{!6, !6, i64 0}
!6 = !{!"long", !7, i64 0}
!7 = !{!"omnipotent char", !8, i64 0}
!8 = !{!"Simple C/C++ TBAA"}
